target datalayout = "e-m:e-p270:32:32-p271:32:32-p272:64:64-i64:64-i128:128-f80:128-n8:16:32:64-S128"
target triple = "x86_64-pc-linux-gnu"

%"struct.std::_Rb_tree_header" = type { %"struct.std::_Rb_tree_node_base", i64 }
%"struct.std::_Rb_tree_node_base" = type { i32, ptr, ptr, ptr }
%"struct.std::_Rb_tree_key_compare.5" = type { %"struct.std::less.6" }
%"struct.std::less.6" = type { i8 }
%struct.JsonnetVm = type <{ double, i32, i32, i32, [4 x i8], %"class.std::map.26", %"class.std::map.26", ptr, %"class.std::map.31", ptr, i8, [7 x i8], %"class.std::vector.36", %"struct.jsonnet::internal::FmtOpts", i8, [3 x i8] }>
%"class.std::map.26" = type { %"class.std::_Rb_tree.27" }
%"class.std::_Rb_tree.27" = type { %"struct.std::_Rb_tree<std::__cxx11::basic_string<char>, std::pair<const std::__cxx11::basic_string<char>, jsonnet::internal::VmExt>, std::_Select1st<std::pair<const std::__cxx11::basic_string<char>, jsonnet::internal::VmExt>>, std::less<std::__cxx11::basic_string<char>>>::_Rb_tree_impl" }
%"struct.std::_Rb_tree<std::__cxx11::basic_string<char>, std::pair<const std::__cxx11::basic_string<char>, jsonnet::internal::VmExt>, std::_Select1st<std::pair<const std::__cxx11::basic_string<char>, jsonnet::internal::VmExt>>, std::less<std::__cxx11::basic_string<char>>>::_Rb_tree_impl" = type { %"struct.std::_Rb_tree_key_compare.5", %"struct.std::_Rb_tree_header" }
%"class.std::map.31" = type { %"class.std::_Rb_tree.32" }
%"class.std::_Rb_tree.32" = type { %"struct.std::_Rb_tree<std::__cxx11::basic_string<char>, std::pair<const std::__cxx11::basic_string<char>, jsonnet::internal::VmNativeCallback>, std::_Select1st<std::pair<const std::__cxx11::basic_string<char>, jsonnet::internal::VmNativeCallback>>, std::less<std::__cxx11::basic_string<char>>>::_Rb_tree_impl" }
%"struct.std::_Rb_tree<std::__cxx11::basic_string<char>, std::pair<const std::__cxx11::basic_string<char>, jsonnet::internal::VmNativeCallback>, std::_Select1st<std::pair<const std::__cxx11::basic_string<char>, jsonnet::internal::VmNativeCallback>>, std::less<std::__cxx11::basic_string<char>>>::_Rb_tree_impl" = type { %"struct.std::_Rb_tree_key_compare.5", %"struct.std::_Rb_tree_header" }
%"class.std::vector.36" = type { %"struct.std::_Vector_base.37" }
%"struct.std::_Vector_base.37" = type { %"struct.std::_Vector_base<std::__cxx11::basic_string<char>, std::allocator<std::__cxx11::basic_string<char>>>::_Vector_impl" }
%"struct.std::_Vector_base<std::__cxx11::basic_string<char>, std::allocator<std::__cxx11::basic_string<char>>>::_Vector_impl" = type { %"struct.std::_Vector_base<std::__cxx11::basic_string<char>, std::allocator<std::__cxx11::basic_string<char>>>::_Vector_impl_data" }
%"struct.std::_Vector_base<std::__cxx11::basic_string<char>, std::allocator<std::__cxx11::basic_string<char>>>::_Vector_impl_data" = type { ptr, ptr, ptr }
%"struct.jsonnet::internal::FmtOpts" = type <{ i8, i8, [2 x i8], i32, i32, i8, i8, i8, i8, i8, i8, i8, i8 }>

; Function Attrs: mustprogress nounwind uwtable
define void @jsonnet_fmt_comment(ptr noundef %0, i32 noundef %1) #5 {
  %3 = alloca ptr, align 8
  %4 = alloca i32, align 4
  store ptr %0, ptr %3, align 8
  store i32 %1, ptr %4, align 4
  %5 = load i32, ptr %4, align 4
  %6 = icmp ne i32 %5, 104
  br i1 %6, label %7, label %14

7:                                                ; preds = %2
  %8 = load i32, ptr %4, align 4
  %9 = icmp ne i32 %8, 115
  br i1 %9, label %10, label %14

10:                                               ; preds = %7
  %11 = load i32, ptr %4, align 4
  %12 = icmp ne i32 %11, 108
  br i1 %12, label %13, label %14

13:                                               ; preds = %10
  store i32 108, ptr %4, align 4
  br label %14

14:                                               ; preds = %13, %10, %7, %2
  %15 = load i32, ptr %4, align 4
  %16 = trunc i32 %15 to i8
  %17 = load ptr, ptr %3, align 8
  %18 = getelementptr inbounds %struct.JsonnetVm, ptr %17, i32 0, i32 13
  %19 = getelementptr inbounds %"struct.jsonnet::internal::FmtOpts", ptr %18, i32 0, i32 1
  store i8 %16, ptr %19, align 1
  ret void
}